; Function Attrs: mustprogress nofree norecurse nosync nounwind willreturn memory(argmem: read) uwtable
define { ptr, i32 } @_ZN6google8protobuf8internal15ReadTagFallbackEPKcj(ptr noundef %0, i32 noundef %1) local_unnamed_addr #9 {
  br label %.critedge

3:                                                ; preds = %.critedge
  %indvars.iv.next = add nuw nsw i64 %indvars.iv, 1
  %exitcond.not = icmp eq i64 %indvars.iv.next, 5
  br i1 %exitcond.not, label %.loopexit, label %.critedge, !llvm.loop !26

.critedge:                                        ; preds = %2, %3
  %indvars.iv = phi i64 [ 2, %2 ], [ %indvars.iv.next, %3 ]
  %.01321 = phi i32 [ %1, %2 ], [ %11, %3 ]
  %4 = getelementptr inbounds nuw i8, ptr %0, i64 %indvars.iv
  %5 = load i8, ptr %4, align 1, !tbaa !25
  %6 = zext i8 %5 to i32
  %7 = add nsw i32 %6, -1
  %8 = trunc i64 %indvars.iv to i32
  %9 = mul i32 %8, 7
  %10 = shl i32 %7, %9
  %11 = add i32 %10, %.01321
  %12 = icmp slt i8 %5, 0
  br i1 %12, label %3, label %13, !prof !27

13:                                               ; preds = %.critedge
  %14 = getelementptr inbounds nuw i8, ptr %0, i64 %indvars.iv
  %15 = getelementptr inbounds nuw i8, ptr %14, i64 1
  br label %.loopexit

.loopexit:                                        ; preds = %3, %13
  %.sroa.0.1 = phi ptr [ %15, %13 ], [ null, %3 ]
  %.sroa.3.1 = phi i32 [ %11, %13 ], [ 0, %3 ]
  %.fca.0.insert = insertvalue { ptr, i32 } poison, ptr %.sroa.0.1, 0
  %.fca.1.insert = insertvalue { ptr, i32 } %.fca.0.insert, i32 %.sroa.3.1, 1
  ret { ptr, i32 } %.fca.1.insert
}